; ModuleID = '17/714.c'
source_filename = "17/714.c"
target datalayout = "e-m:e-p270:32:32-p271:32:32-p272:64:64-i64:64-f80:128-n8:16:32:64-S128"
target triple = "x86_64-pc-linux-gnu"

; Function Attrs: noinline nounwind uwtable
define dso_local void @match(i8* %0) #0 {
  %2 = alloca i8*, align 8
  %3 = alloca [102 x i8], align 16
  %4 = alloca i64, align 8
  %5 = alloca i32, align 4
  %6 = alloca [102 x i32], align 16
  %7 = alloca i32, align 4
  store i8* %0, i8** %2, align 8
  %8 = bitcast [102 x i8]* %3 to i8*
  call void @llvm.memset.p0i8.i64(i8* align 16 %8, i8 0, i64 102, i1 false)
  %9 = load i8*, i8** %2, align 8
  %10 = call i64 @strlen(i8* %9) #4
  store i64 %10, i64* %4, align 8
  %11 = bitcast [102 x i32]* %6 to i8*
  call void @llvm.memset.p0i8.i64(i8* align 16 %11, i8 0, i64 408, i1 false)
  store i32 0, i32* %7, align 4
  store i32 0, i32* %5, align 4
  br label %12

12:                                               ; preds = %69, %1
  %13 = load i32, i32* %5, align 4
  %14 = sext i32 %13 to i64
  %15 = load i64, i64* %4, align 8
  %16 = icmp slt i64 %14, %15
  br i1 %16, label %17, label %72

17:                                               ; preds = %12
  %18 = load i8*, i8** %2, align 8
  %19 = load i32, i32* %5, align 4
  %20 = sext i32 %19 to i64
  %21 = getelementptr inbounds i8, i8* %18, i64 %20
  %22 = load i8, i8* %21, align 1
  %23 = sext i8 %22 to i32
  %24 = icmp eq i32 %23, 40
  br i1 %24, label %25, label %35

25:                                               ; preds = %17
  %26 = load i32, i32* %7, align 4
  %27 = add nsw i32 %26, 1
  store i32 %27, i32* %7, align 4
  %28 = load i32, i32* %5, align 4
  %29 = load i32, i32* %7, align 4
  %30 = sext i32 %29 to i64
  %31 = getelementptr inbounds [102 x i32], [102 x i32]* %6, i64 0, i64 %30
  store i32 %28, i32* %31, align 4
  %32 = load i32, i32* %5, align 4
  %33 = sext i32 %32 to i64
  %34 = getelementptr inbounds [102 x i8], [102 x i8]* %3, i64 0, i64 %33
  store i8 36, i8* %34, align 1
  br label %68

35:                                               ; preds = %17
  %36 = load i8*, i8** %2, align 8
  %37 = load i32, i32* %5, align 4
  %38 = sext i32 %37 to i64
  %39 = getelementptr inbounds i8, i8* %36, i64 %38
  %40 = load i8, i8* %39, align 1
  %41 = sext i8 %40 to i32
  %42 = icmp eq i32 %41, 41
  br i1 %42, label %43, label %63

43:                                               ; preds = %35
  %44 = load i32, i32* %7, align 4
  %45 = icmp eq i32 %44, 0
  br i1 %45, label %46, label %50

46:                                               ; preds = %43
  %47 = load i32, i32* %5, align 4
  %48 = sext i32 %47 to i64
  %49 = getelementptr inbounds [102 x i8], [102 x i8]* %3, i64 0, i64 %48
  store i8 63, i8* %49, align 1
  br label %62

50:                                               ; preds = %43
  %51 = load i32, i32* %5, align 4
  %52 = sext i32 %51 to i64
  %53 = getelementptr inbounds [102 x i8], [102 x i8]* %3, i64 0, i64 %52
  store i8 32, i8* %53, align 1
  %54 = load i32, i32* %7, align 4
  %55 = sext i32 %54 to i64
  %56 = getelementptr inbounds [102 x i32], [102 x i32]* %6, i64 0, i64 %55
  %57 = load i32, i32* %56, align 4
  %58 = sext i32 %57 to i64
  %59 = getelementptr inbounds [102 x i8], [102 x i8]* %3, i64 0, i64 %58
  store i8 32, i8* %59, align 1
  %60 = load i32, i32* %7, align 4
  %61 = add nsw i32 %60, -1
  store i32 %61, i32* %7, align 4
  br label %62

62:                                               ; preds = %50, %46
  br label %67

63:                                               ; preds = %35
  %64 = load i32, i32* %5, align 4
  %65 = sext i32 %64 to i64
  %66 = getelementptr inbounds [102 x i8], [102 x i8]* %3, i64 0, i64 %65
  store i8 32, i8* %66, align 1
  br label %67

67:                                               ; preds = %63, %62
  br label %68

68:                                               ; preds = %67, %25
  br label %69

69:                                               ; preds = %68
  %70 = load i32, i32* %5, align 4
  %71 = add nsw i32 %70, 1
  store i32 %71, i32* %5, align 4
  br label %12

72:                                               ; preds = %12
  %73 = load i64, i64* %4, align 8
  %74 = getelementptr inbounds [102 x i8], [102 x i8]* %3, i64 0, i64 %73
  store i8 0, i8* %74, align 1
  %75 = load i8*, i8** %2, align 8
  %76 = call i32 @puts(i8* %75)
  %77 = getelementptr inbounds [102 x i8], [102 x i8]* %3, i64 0, i64 0
  %78 = call i32 @puts(i8* %77)
  ret void
}

; Function Attrs: argmemonly nounwind willreturn
declare void @llvm.memset.p0i8.i64(i8* nocapture writeonly, i8, i64, i1 immarg) #1

; Function Attrs: nounwind readonly
declare dso_local i64 @strlen(i8*) #2

declare dso_local i32 @puts(i8*) #3

; Function Attrs: noinline nounwind uwtable
define dso_local i32 @main() #0 {
  %1 = alloca i32, align 4
  %2 = alloca [102 x i8], align 16
  %3 = alloca i8, align 1
  %4 = alloca i32, align 4
  store i32 0, i32* %1, align 4
  %5 = bitcast [102 x i8]* %2 to i8*
  call void @llvm.memset.p0i8.i64(i8* align 16 %5, i8 0, i64 102, i1 false)
  store i32 -1, i32* %4, align 4
  br label %6

6:                                                ; preds = %29, %0
  %7 = call i32 @getchar()
  %8 = trunc i32 %7 to i8
  store i8 %8, i8* %3, align 1
  %9 = sext i8 %8 to i32
  %10 = icmp ne i32 %9, -1
  br i1 %10, label %11, label %30

11:                                               ; preds = %6
  %12 = load i8, i8* %3, align 1
  %13 = sext i8 %12 to i32
  %14 = icmp ne i32 %13, 10
  br i1 %14, label %15, label %22

15:                                               ; preds = %11
  %16 = load i32, i32* %4, align 4
  %17 = add nsw i32 %16, 1
  store i32 %17, i32* %4, align 4
  %18 = load i8, i8* %3, align 1
  %19 = load i32, i32* %4, align 4
  %20 = sext i32 %19 to i64
  %21 = getelementptr inbounds [102 x i8], [102 x i8]* %2, i64 0, i64 %20
  store i8 %18, i8* %21, align 1
  br label %29

22:                                               ; preds = %11
  %23 = load i32, i32* %4, align 4
  %24 = add nsw i32 %23, 1
  store i32 %24, i32* %4, align 4
  %25 = load i32, i32* %4, align 4
  %26 = sext i32 %25 to i64
  %27 = getelementptr inbounds [102 x i8], [102 x i8]* %2, i64 0, i64 %26
  store i8 0, i8* %27, align 1
  %28 = getelementptr inbounds [102 x i8], [102 x i8]* %2, i64 0, i64 0
  call void @match(i8* %28)
  store i32 -1, i32* %4, align 4
  br label %29

29:                                               ; preds = %22, %15
  br label %6

30:                                               ; preds = %6
  ret i32 0
}

declare dso_local i32 @getchar() #3


!llvm.module.flags = !{!0}
!llvm.ident = !{!1}

!0 = !{i32 1, !"wchar_size", i32 4}
!1 = !{!"clang version 10.0.0-4ubuntu1 "}
